; Function Attrs: nounwind uwtable
define dso_local range(i32 0, -2147483648) i32 @get_attavgwidth(i32 noundef %0, i16 noundef signext %1) local_unnamed_addr #0 {
  %3 = load ptr, ptr @get_attavgwidth_hook, align 8
  %.not = icmp eq ptr %3, null
  br i1 %.not, label %7, label %4

4:                                                ; preds = %2
  %5 = tail call i32 %3(i32 noundef %0, i16 noundef signext %1) #8
  %6 = icmp sgt i32 %5, 0
  br i1 %6, label %21, label %7

7:                                                ; preds = %4, %2
  %8 = zext i32 %0 to i64
  %9 = sext i16 %1 to i64
  %10 = tail call ptr @SearchSysCache3(i32 noundef 65, i64 noundef %8, i64 noundef %9, i64 noundef 0) #8
  %.not15 = icmp eq ptr %10, null
  br i1 %.not15, label %20, label %11

11:                                               ; preds = %7
  %12 = getelementptr i8, ptr %10, i64 16
  %.val = load ptr, ptr %12, align 8
  %13 = getelementptr inbounds nuw i8, ptr %.val, i64 22
  %14 = load i8, ptr %13, align 2
  %15 = zext i8 %14 to i64
  %16 = getelementptr inbounds nuw i8, ptr %.val, i64 %15
  %17 = getelementptr inbounds nuw i8, ptr %16, i64 12
  %18 = load i32, ptr %17, align 4
  tail call void @ReleaseSysCache(ptr noundef nonnull %10) #8
  %19 = icmp sgt i32 %18, 0
  br i1 %19, label %21, label %20

20:                                               ; preds = %11, %7
  br label %21

21:                                               ; preds = %11, %4, %20
  %.0 = phi i32 [ 0, %20 ], [ %5, %4 ], [ %18, %11 ]
  ret i32 %.0
}